target datalayout = "e-m:e-p270:32:32-p271:32:32-p272:64:64-i64:64-f80:128-n8:16:32:64-S128"
target triple = "x86_64-pc-linux-gnu"

%struct.student = type { [20 x i8], i32, i32, i8, i8, i32, i32 }

@.str = private unnamed_addr constant [3 x i8] c"%d\00", align 1
@.str.1 = private unnamed_addr constant [18 x i8] c"%s %d %d %c %c %d\00", align 1
@.str.2 = private unnamed_addr constant [10 x i8] c"%s\0A%d\0A%d\0A\00", align 1

; Function Attrs: noinline nounwind uwtable
define dso_local void @main() #0 {
  %1 = alloca [100 x %struct.student], align 16
  %2 = alloca i32, align 4
  %3 = alloca i32, align 4
  %4 = alloca i32, align 4
  %5 = alloca i32, align 4
  %6 = alloca %struct.student*, align 8
  %7 = call i32 (i8*, ...) @__isoc99_scanf(i8* getelementptr inbounds ([3 x i8], [3 x i8]* @.str, i64 0, i64 0), i32* %2)
  store i32 0, i32* %3, align 4
  br label %8

8:                                                ; preds = %38, %0
  %9 = load i32, i32* %3, align 4
  %10 = load i32, i32* %2, align 4
  %11 = icmp slt i32 %9, %10
  br i1 %11, label %12, label %41

12:                                               ; preds = %8
  %13 = load i32, i32* %3, align 4
  %14 = sext i32 %13 to i64
  %15 = getelementptr inbounds [100 x %struct.student], [100 x %struct.student]* %1, i64 0, i64 %14
  %16 = getelementptr inbounds %struct.student, %struct.student* %15, i32 0, i32 0
  %17 = load i32, i32* %3, align 4
  %18 = sext i32 %17 to i64
  %19 = getelementptr inbounds [100 x %struct.student], [100 x %struct.student]* %1, i64 0, i64 %18
  %20 = getelementptr inbounds %struct.student, %struct.student* %19, i32 0, i32 1
  %21 = load i32, i32* %3, align 4
  %22 = sext i32 %21 to i64
  %23 = getelementptr inbounds [100 x %struct.student], [100 x %struct.student]* %1, i64 0, i64 %22
  %24 = getelementptr inbounds %struct.student, %struct.student* %23, i32 0, i32 2
  %25 = load i32, i32* %3, align 4
  %26 = sext i32 %25 to i64
  %27 = getelementptr inbounds [100 x %struct.student], [100 x %struct.student]* %1, i64 0, i64 %26
  %28 = getelementptr inbounds %struct.student, %struct.student* %27, i32 0, i32 3
  %29 = load i32, i32* %3, align 4
  %30 = sext i32 %29 to i64
  %31 = getelementptr inbounds [100 x %struct.student], [100 x %struct.student]* %1, i64 0, i64 %30
  %32 = getelementptr inbounds %struct.student, %struct.student* %31, i32 0, i32 4
  %33 = load i32, i32* %3, align 4
  %34 = sext i32 %33 to i64
  %35 = getelementptr inbounds [100 x %struct.student], [100 x %struct.student]* %1, i64 0, i64 %34
  %36 = getelementptr inbounds %struct.student, %struct.student* %35, i32 0, i32 5
  %37 = call i32 (i8*, ...) @__isoc99_scanf(i8* getelementptr inbounds ([18 x i8], [18 x i8]* @.str.1, i64 0, i64 0), [20 x i8]* %16, i32* %20, i32* %24, i8* %28, i8* %32, i32* %36)
  br label %38

38:                                               ; preds = %12
  %39 = load i32, i32* %3, align 4
  %40 = add nsw i32 %39, 1
  store i32 %40, i32* %3, align 4
  br label %8

41:                                               ; preds = %8
  store i32 0, i32* %3, align 4
  br label %42

42:                                               ; preds = %171, %41
  %43 = load i32, i32* %3, align 4
  %44 = load i32, i32* %2, align 4
  %45 = icmp slt i32 %43, %44
  br i1 %45, label %46, label %174

46:                                               ; preds = %42
  %47 = load i32, i32* %3, align 4
  %48 = sext i32 %47 to i64
  %49 = getelementptr inbounds [100 x %struct.student], [100 x %struct.student]* %1, i64 0, i64 %48
  %50 = getelementptr inbounds %struct.student, %struct.student* %49, i32 0, i32 6
  store i32 0, i32* %50, align 4
  %51 = load i32, i32* %3, align 4
  %52 = sext i32 %51 to i64
  %53 = getelementptr inbounds [100 x %struct.student], [100 x %struct.student]* %1, i64 0, i64 %52
  %54 = getelementptr inbounds %struct.student, %struct.student* %53, i32 0, i32 1
  %55 = load i32, i32* %54, align 4
  %56 = icmp sgt i32 %55, 80
  br i1 %56, label %57, label %75

57:                                               ; preds = %46
  %58 = load i32, i32* %3, align 4
  %59 = sext i32 %58 to i64
  %60 = getelementptr inbounds [100 x %struct.student], [100 x %struct.student]* %1, i64 0, i64 %59
  %61 = getelementptr inbounds %struct.student, %struct.student* %60, i32 0, i32 5
  %62 = load i32, i32* %61, align 8
  %63 = icmp sge i32 %62, 1
  br i1 %63, label %64, label %75

64:                                               ; preds = %57
  %65 = load i32, i32* %3, align 4
  %66 = sext i32 %65 to i64
  %67 = getelementptr inbounds [100 x %struct.student], [100 x %struct.student]* %1, i64 0, i64 %66
  %68 = getelementptr inbounds %struct.student, %struct.student* %67, i32 0, i32 6
  %69 = load i32, i32* %68, align 4
  %70 = add nsw i32 %69, 8000
  %71 = load i32, i32* %3, align 4
  %72 = sext i32 %71 to i64
  %73 = getelementptr inbounds [100 x %struct.student], [100 x %struct.student]* %1, i64 0, i64 %72
  %74 = getelementptr inbounds %struct.student, %struct.student* %73, i32 0, i32 6
  store i32 %70, i32* %74, align 4
  br label %75

75:                                               ; preds = %64, %57, %46
  %76 = load i32, i32* %3, align 4
  %77 = sext i32 %76 to i64
  %78 = getelementptr inbounds [100 x %struct.student], [100 x %struct.student]* %1, i64 0, i64 %77
  %79 = getelementptr inbounds %struct.student, %struct.student* %78, i32 0, i32 1
  %80 = load i32, i32* %79, align 4
  %81 = icmp sgt i32 %80, 85
  br i1 %81, label %82, label %100

82:                                               ; preds = %75
  %83 = load i32, i32* %3, align 4
  %84 = sext i32 %83 to i64
  %85 = getelementptr inbounds [100 x %struct.student], [100 x %struct.student]* %1, i64 0, i64 %84
  %86 = getelementptr inbounds %struct.student, %struct.student* %85, i32 0, i32 2
  %87 = load i32, i32* %86, align 8
  %88 = icmp sgt i32 %87, 80
  br i1 %88, label %89, label %100

89:                                               ; preds = %82
  %90 = load i32, i32* %3, align 4
  %91 = sext i32 %90 to i64
  %92 = getelementptr inbounds [100 x %struct.student], [100 x %struct.student]* %1, i64 0, i64 %91
  %93 = getelementptr inbounds %struct.student, %struct.student* %92, i32 0, i32 6
  %94 = load i32, i32* %93, align 4
  %95 = add nsw i32 %94, 4000
  %96 = load i32, i32* %3, align 4
  %97 = sext i32 %96 to i64
  %98 = getelementptr inbounds [100 x %struct.student], [100 x %struct.student]* %1, i64 0, i64 %97
  %99 = getelementptr inbounds %struct.student, %struct.student* %98, i32 0, i32 6
  store i32 %95, i32* %99, align 4
  br label %100

100:                                              ; preds = %89, %82, %75
  %101 = load i32, i32* %3, align 4
  %102 = sext i32 %101 to i64
  %103 = getelementptr inbounds [100 x %struct.student], [100 x %struct.student]* %1, i64 0, i64 %102
  %104 = getelementptr inbounds %struct.student, %struct.student* %103, i32 0, i32 1
  %105 = load i32, i32* %104, align 4
  %106 = icmp sgt i32 %105, 90
  br i1 %106, label %107, label %118

107:                                              ; preds = %100
  %108 = load i32, i32* %3, align 4
  %109 = sext i32 %108 to i64
  %110 = getelementptr inbounds [100 x %struct.student], [100 x %struct.student]* %1, i64 0, i64 %109
  %111 = getelementptr inbounds %struct.student, %struct.student* %110, i32 0, i32 6
  %112 = load i32, i32* %111, align 4
  %113 = add nsw i32 %112, 2000
  %114 = load i32, i32* %3, align 4
  %115 = sext i32 %114 to i64
  %116 = getelementptr inbounds [100 x %struct.student], [100 x %struct.student]* %1, i64 0, i64 %115
  %117 = getelementptr inbounds %struct.student, %struct.student* %116, i32 0, i32 6
  store i32 %113, i32* %117, align 4
  br label %118

118:                                              ; preds = %107, %100
  %119 = load i32, i32* %3, align 4
  %120 = sext i32 %119 to i64
  %121 = getelementptr inbounds [100 x %struct.student], [100 x %struct.student]* %1, i64 0, i64 %120
  %122 = getelementptr inbounds %struct.student, %struct.student* %121, i32 0, i32 1
  %123 = load i32, i32* %122, align 4
  %124 = icmp sgt i32 %123, 85
  br i1 %124, label %125, label %144

125:                                              ; preds = %118
  %126 = load i32, i32* %3, align 4
  %127 = sext i32 %126 to i64
  %128 = getelementptr inbounds [100 x %struct.student], [100 x %struct.student]* %1, i64 0, i64 %127
  %129 = getelementptr inbounds %struct.student, %struct.student* %128, i32 0, i32 4
  %130 = load i8, i8* %129, align 1
  %131 = sext i8 %130 to i32
  %132 = icmp eq i32 %131, 89
  br i1 %132, label %133, label %144

133:                                              ; preds = %125
  %134 = load i32, i32* %3, align 4
  %135 = sext i32 %134 to i64
  %136 = getelementptr inbounds [100 x %struct.student], [100 x %struct.student]* %1, i64 0, i64 %135
  %137 = getelementptr inbounds %struct.student, %struct.student* %136, i32 0, i32 6
  %138 = load i32, i32* %137, align 4
  %139 = add nsw i32 %138, 1000
  %140 = load i32, i32* %3, align 4
  %141 = sext i32 %140 to i64
  %142 = getelementptr inbounds [100 x %struct.student], [100 x %struct.student]* %1, i64 0, i64 %141
  %143 = getelementptr inbounds %struct.student, %struct.student* %142, i32 0, i32 6
  store i32 %139, i32* %143, align 4
  br label %144

144:                                              ; preds = %133, %125, %118
  %145 = load i32, i32* %3, align 4
  %146 = sext i32 %145 to i64
  %147 = getelementptr inbounds [100 x %struct.student], [100 x %struct.student]* %1, i64 0, i64 %146
  %148 = getelementptr inbounds %struct.student, %struct.student* %147, i32 0, i32 2
  %149 = load i32, i32* %148, align 8
  %150 = icmp sgt i32 %149, 80
  br i1 %150, label %151, label %170

151:                                              ; preds = %144
  %152 = load i32, i32* %3, align 4
  %153 = sext i32 %152 to i64
  %154 = getelementptr inbounds [100 x %struct.student], [100 x %struct.student]* %1, i64 0, i64 %153
  %155 = getelementptr inbounds %struct.student, %struct.student* %154, i32 0, i32 3
  %156 = load i8, i8* %155, align 4
  %157 = sext i8 %156 to i32
  %158 = icmp eq i32 %157, 89
  br i1 %158, label %159, label %170

159:                                              ; preds = %151
  %160 = load i32, i32* %3, align 4
  %161 = sext i32 %160 to i64
  %162 = getelementptr inbounds [100 x %struct.student], [100 x %struct.student]* %1, i64 0, i64 %161
  %163 = getelementptr inbounds %struct.student, %struct.student* %162, i32 0, i32 6
  %164 = load i32, i32* %163, align 4
  %165 = add nsw i32 %164, 850
  %166 = load i32, i32* %3, align 4
  %167 = sext i32 %166 to i64
  %168 = getelementptr inbounds [100 x %struct.student], [100 x %struct.student]* %1, i64 0, i64 %167
  %169 = getelementptr inbounds %struct.student, %struct.student* %168, i32 0, i32 6
  store i32 %165, i32* %169, align 4
  br label %170

170:                                              ; preds = %159, %151, %144
  br label %171

171:                                              ; preds = %170
  %172 = load i32, i32* %3, align 4
  %173 = add nsw i32 %172, 1
  store i32 %173, i32* %3, align 4
  br label %42

174:                                              ; preds = %42
  store i32 0, i32* %3, align 4
  store i32 0, i32* %4, align 4
  br label %175

175:                                              ; preds = %187, %174
  %176 = load i32, i32* %3, align 4
  %177 = load i32, i32* %2, align 4
  %178 = icmp slt i32 %176, %177
  br i1 %178, label %179, label %190

179:                                              ; preds = %175
  %180 = load i32, i32* %4, align 4
  %181 = load i32, i32* %3, align 4
  %182 = sext i32 %181 to i64
  %183 = getelementptr inbounds [100 x %struct.student], [100 x %struct.student]* %1, i64 0, i64 %182
  %184 = getelementptr inbounds %struct.student, %struct.student* %183, i32 0, i32 6
  %185 = load i32, i32* %184, align 4
  %186 = add nsw i32 %180, %185
  store i32 %186, i32* %4, align 4
  br label %187

187:                                              ; preds = %179
  %188 = load i32, i32* %3, align 4
  %189 = add nsw i32 %188, 1
  store i32 %189, i32* %3, align 4
  br label %175

190:                                              ; preds = %175
  store i32 1, i32* %3, align 4
  %191 = getelementptr inbounds [100 x %struct.student], [100 x %struct.student]* %1, i64 0, i64 0
  store %struct.student* %191, %struct.student** %6, align 8
  br label %192

192:                                              ; preds = %212, %190
  %193 = load i32, i32* %3, align 4
  %194 = load i32, i32* %2, align 4
  %195 = icmp slt i32 %193, %194
  br i1 %195, label %196, label %215

196:                                              ; preds = %192
  %197 = load i32, i32* %3, align 4
  %198 = sext i32 %197 to i64
  %199 = getelementptr inbounds [100 x %struct.student], [100 x %struct.student]* %1, i64 0, i64 %198
  %200 = getelementptr inbounds %struct.student, %struct.student* %199, i32 0, i32 6
  %201 = load i32, i32* %200, align 4
  %202 = load %struct.student*, %struct.student** %6, align 8
  %203 = getelementptr inbounds %struct.student, %struct.student* %202, i32 0, i32 6
  %204 = load i32, i32* %203, align 4
  %205 = icmp sgt i32 %201, %204
  br i1 %205, label %206, label %211

206:                                              ; preds = %196
  %207 = getelementptr inbounds [100 x %struct.student], [100 x %struct.student]* %1, i64 0, i64 0
  %208 = load i32, i32* %3, align 4
  %209 = sext i32 %208 to i64
  %210 = getelementptr inbounds %struct.student, %struct.student* %207, i64 %209
  store %struct.student* %210, %struct.student** %6, align 8
  br label %211

211:                                              ; preds = %206, %196
  br label %212

212:                                              ; preds = %211
  %213 = load i32, i32* %3, align 4
  %214 = add nsw i32 %213, 1
  store i32 %214, i32* %3, align 4
  br label %192

215:                                              ; preds = %192
  %216 = load %struct.student*, %struct.student** %6, align 8
  %217 = getelementptr inbounds %struct.student, %struct.student* %216, i32 0, i32 0
  %218 = getelementptr inbounds [20 x i8], [20 x i8]* %217, i64 0, i64 0
  %219 = load %struct.student*, %struct.student** %6, align 8
  %220 = getelementptr inbounds %struct.student, %struct.student* %219, i32 0, i32 6
  %221 = load i32, i32* %220, align 4
  %222 = load i32, i32* %4, align 4
  %223 = call i32 (i8*, ...) @printf(i8* getelementptr inbounds ([10 x i8], [10 x i8]* @.str.2, i64 0, i64 0), i8* %218, i32 %221, i32 %222)
  ret void
}